target datalayout = "e-m:e-p270:32:32-p271:32:32-p272:64:64-i64:64-i128:128-f80:128-n8:16:32:64-S128"
target triple = "x86_64-pc-linux-gnu"

%struct.ident_t = type { i32, i32, i32, i32, ptr }
%class.anon.124 = type { ptr, ptr, ptr }

@1 = private unnamed_addr constant %struct.ident_t { i32 0, i32 514, i32 0, i32 22, ptr @0 }, align 8

; Function Attrs: inlinehint mustprogress nounwind ssp uwtable
define linkonce_odr hidden void @_ZN6open3d1t8geometry6kernel9transform18RotatePointsKernelIdEEvPKT_PS5_S7_(ptr noundef %0, ptr noundef %1, ptr noundef %2) #3 comdat {
  %4 = alloca ptr, align 8
  %5 = alloca ptr, align 8
  %6 = alloca ptr, align 8
  %7 = alloca [3 x double], align 16
  store ptr %0, ptr %4, align 8, !tbaa !31
  store ptr %1, ptr %5, align 8, !tbaa !31
  store ptr %2, ptr %6, align 8, !tbaa !31
  call void @llvm.lifetime.start.p0(i64 24, ptr %7) #25
  %8 = load ptr, ptr %5, align 8, !tbaa !31
  %9 = getelementptr inbounds double, ptr %8, i64 0
  %10 = load double, ptr %9, align 8, !tbaa !138
  %11 = load ptr, ptr %6, align 8, !tbaa !31
  %12 = getelementptr inbounds double, ptr %11, i64 0
  %13 = load double, ptr %12, align 8, !tbaa !138
  %14 = fsub double %10, %13
  store double %14, ptr %7, align 8, !tbaa !138
  %15 = getelementptr inbounds double, ptr %7, i64 1
  %16 = load ptr, ptr %5, align 8, !tbaa !31
  %17 = getelementptr inbounds double, ptr %16, i64 1
  %18 = load double, ptr %17, align 8, !tbaa !138
  %19 = load ptr, ptr %6, align 8, !tbaa !31
  %20 = getelementptr inbounds double, ptr %19, i64 1
  %21 = load double, ptr %20, align 8, !tbaa !138
  %22 = fsub double %18, %21
  store double %22, ptr %15, align 8, !tbaa !138
  %23 = getelementptr inbounds double, ptr %7, i64 2
  %24 = load ptr, ptr %5, align 8, !tbaa !31
  %25 = getelementptr inbounds double, ptr %24, i64 2
  %26 = load double, ptr %25, align 8, !tbaa !138
  %27 = load ptr, ptr %6, align 8, !tbaa !31
  %28 = getelementptr inbounds double, ptr %27, i64 2
  %29 = load double, ptr %28, align 8, !tbaa !138
  %30 = fsub double %26, %29
  store double %30, ptr %23, align 8, !tbaa !138
  %31 = load ptr, ptr %4, align 8, !tbaa !31
  %32 = getelementptr inbounds double, ptr %31, i64 0
  %33 = load double, ptr %32, align 8, !tbaa !138
  %34 = getelementptr inbounds [3 x double], ptr %7, i64 0, i64 0
  %35 = load double, ptr %34, align 16, !tbaa !138
  %36 = load ptr, ptr %4, align 8, !tbaa !31
  %37 = getelementptr inbounds double, ptr %36, i64 1
  %38 = load double, ptr %37, align 8, !tbaa !138
  %39 = getelementptr inbounds [3 x double], ptr %7, i64 0, i64 1
  %40 = load double, ptr %39, align 8, !tbaa !138
  %41 = fmul double %38, %40
  %42 = call double @llvm.fmuladd.f64(double %33, double %35, double %41)
  %43 = load ptr, ptr %4, align 8, !tbaa !31
  %44 = getelementptr inbounds double, ptr %43, i64 2
  %45 = load double, ptr %44, align 8, !tbaa !138
  %46 = getelementptr inbounds [3 x double], ptr %7, i64 0, i64 2
  %47 = load double, ptr %46, align 16, !tbaa !138
  %48 = call double @llvm.fmuladd.f64(double %45, double %47, double %42)
  %49 = load ptr, ptr %6, align 8, !tbaa !31
  %50 = getelementptr inbounds double, ptr %49, i64 0
  %51 = load double, ptr %50, align 8, !tbaa !138
  %52 = fadd double %48, %51
  %53 = load ptr, ptr %5, align 8, !tbaa !31
  %54 = getelementptr inbounds double, ptr %53, i64 0
  store double %52, ptr %54, align 8, !tbaa !138
  %55 = load ptr, ptr %4, align 8, !tbaa !31
  %56 = getelementptr inbounds double, ptr %55, i64 3
  %57 = load double, ptr %56, align 8, !tbaa !138
  %58 = getelementptr inbounds [3 x double], ptr %7, i64 0, i64 0
  %59 = load double, ptr %58, align 16, !tbaa !138
  %60 = load ptr, ptr %4, align 8, !tbaa !31
  %61 = getelementptr inbounds double, ptr %60, i64 4
  %62 = load double, ptr %61, align 8, !tbaa !138
  %63 = getelementptr inbounds [3 x double], ptr %7, i64 0, i64 1
  %64 = load double, ptr %63, align 8, !tbaa !138
  %65 = fmul double %62, %64
  %66 = call double @llvm.fmuladd.f64(double %57, double %59, double %65)
  %67 = load ptr, ptr %4, align 8, !tbaa !31
  %68 = getelementptr inbounds double, ptr %67, i64 5
  %69 = load double, ptr %68, align 8, !tbaa !138
  %70 = getelementptr inbounds [3 x double], ptr %7, i64 0, i64 2
  %71 = load double, ptr %70, align 16, !tbaa !138
  %72 = call double @llvm.fmuladd.f64(double %69, double %71, double %66)
  %73 = load ptr, ptr %6, align 8, !tbaa !31
  %74 = getelementptr inbounds double, ptr %73, i64 1
  %75 = load double, ptr %74, align 8, !tbaa !138
  %76 = fadd double %72, %75
  %77 = load ptr, ptr %5, align 8, !tbaa !31
  %78 = getelementptr inbounds double, ptr %77, i64 1
  store double %76, ptr %78, align 8, !tbaa !138
  %79 = load ptr, ptr %4, align 8, !tbaa !31
  %80 = getelementptr inbounds double, ptr %79, i64 6
  %81 = load double, ptr %80, align 8, !tbaa !138
  %82 = getelementptr inbounds [3 x double], ptr %7, i64 0, i64 0
  %83 = load double, ptr %82, align 16, !tbaa !138
  %84 = load ptr, ptr %4, align 8, !tbaa !31
  %85 = getelementptr inbounds double, ptr %84, i64 7
  %86 = load double, ptr %85, align 8, !tbaa !138
  %87 = getelementptr inbounds [3 x double], ptr %7, i64 0, i64 1
  %88 = load double, ptr %87, align 8, !tbaa !138
  %89 = fmul double %86, %88
  %90 = call double @llvm.fmuladd.f64(double %81, double %83, double %89)
  %91 = load ptr, ptr %4, align 8, !tbaa !31
  %92 = getelementptr inbounds double, ptr %91, i64 8
  %93 = load double, ptr %92, align 8, !tbaa !138
  %94 = getelementptr inbounds [3 x double], ptr %7, i64 0, i64 2
  %95 = load double, ptr %94, align 16, !tbaa !138
  %96 = call double @llvm.fmuladd.f64(double %93, double %95, double %90)
  %97 = load ptr, ptr %6, align 8, !tbaa !31
  %98 = getelementptr inbounds double, ptr %97, i64 2
  %99 = load double, ptr %98, align 8, !tbaa !138
  %100 = fadd double %96, %99
  %101 = load ptr, ptr %5, align 8, !tbaa !31
  %102 = getelementptr inbounds double, ptr %101, i64 2
  store double %100, ptr %102, align 8, !tbaa !138
  call void @llvm.lifetime.end.p0(i64 24, ptr %7) #25
  ret void
}

; Function Attrs: noinline noreturn nounwind ssp uwtable
define linkonce_odr hidden void @__clang_call_terminate(ptr noundef %0) #23 comdat {
  %2 = call ptr @__cxa_begin_catch(ptr %0) #25
  call void @_ZSt9terminatev() #28
  unreachable
}

; Function Attrs: inlinehint mustprogress ssp uwtable
define internal void @"_ZZZZN6open3d1t8geometry6kernel9transform15RotatePointsCPUERKNS_4core6TensorERS5_S7_ENK3$_0clEvENKUlvE0_clEvENKUllE_clEl"(ptr noundef nonnull align 8 dereferenceable(24) %0, i64 noundef %1) #2 align 2 {
  %3 = alloca ptr, align 8
  %4 = alloca i64, align 8
  store ptr %0, ptr %3, align 8, !tbaa !9
  store i64 %1, ptr %4, align 8, !tbaa !16
  %5 = load ptr, ptr %3, align 8
  %6 = getelementptr inbounds nuw %class.anon.124, ptr %5, i32 0, i32 0
  %7 = load ptr, ptr %6, align 8, !tbaa !812
  %8 = getelementptr inbounds nuw %class.anon.124, ptr %5, i32 0, i32 1
  %9 = load ptr, ptr %8, align 8, !tbaa !814
  %10 = load i64, ptr %4, align 8, !tbaa !16
  %11 = mul nsw i64 3, %10
  %12 = getelementptr inbounds double, ptr %9, i64 %11
  %13 = getelementptr inbounds nuw %class.anon.124, ptr %5, i32 0, i32 2
  %14 = load ptr, ptr %13, align 8, !tbaa !815
  call void @_ZN6open3d1t8geometry6kernel9transform18RotatePointsKernelIdEEvPKT_PS5_S7_(ptr noundef %7, ptr noundef %12, ptr noundef %14)
  ret void
}

; Function Attrs: alwaysinline norecurse nounwind ssp uwtable
define internal void @"_ZN6open3d4core15ParallelForCPU_IZZZNS_1t8geometry6kernel9transform15RotatePointsCPUERKNS0_6TensorERS6_S8_ENK3$_0clEvENKUlvE0_clEvEUllE_EEvRKNS0_6DeviceElRKT_.omp_outlined"(ptr noalias noundef %0, ptr noalias noundef %1, ptr noundef nonnull align 8 dereferenceable(8) %2, ptr noundef nonnull align 8 dereferenceable(24) %3) #24 personality ptr @__gxx_personality_v0 {
  %5 = alloca ptr, align 8
  %6 = alloca ptr, align 8
  %7 = alloca ptr, align 8
  %8 = alloca ptr, align 8
  %9 = alloca ptr, align 8
  %10 = alloca i64, align 8
  %11 = alloca i64, align 8
  %12 = alloca i64, align 8
  %13 = alloca i64, align 8
  %14 = alloca i64, align 8
  %15 = alloca i64, align 8
  %16 = alloca i64, align 8
  %17 = alloca i32, align 4
  %18 = alloca i64, align 8
  store ptr %0, ptr %5, align 8, !tbaa !209
  store ptr %1, ptr %6, align 8, !tbaa !209
  store ptr %2, ptr %7, align 8, !tbaa !351
  store ptr %3, ptr %8, align 8, !tbaa !9
  %19 = load ptr, ptr %7, align 8, !tbaa !351
  %20 = load ptr, ptr %8, align 8, !tbaa !9
  store ptr %20, ptr %9, align 8
  call void @llvm.lifetime.start.p0(i64 8, ptr %10) #25
  call void @llvm.lifetime.start.p0(i64 8, ptr %11) #25
  %21 = load i64, ptr %19, align 8, !tbaa !16
  store i64 %21, ptr %11, align 8, !tbaa !16
  call void @llvm.lifetime.start.p0(i64 8, ptr %12) #25
  %22 = load i64, ptr %11, align 8, !tbaa !16
  %23 = sub nsw i64 %22, 0
  %24 = sdiv i64 %23, 1
  %25 = sub nsw i64 %24, 1
  store i64 %25, ptr %12, align 8, !tbaa !16
  call void @llvm.lifetime.start.p0(i64 8, ptr %13) #25
  store i64 0, ptr %13, align 8, !tbaa !16
  call void @llvm.lifetime.end.p0(i64 8, ptr %13) #25
  %26 = load i64, ptr %11, align 8, !tbaa !16
  %27 = icmp slt i64 0, %26
  br i1 %27, label %28, label %62

28:                                               ; preds = %4
  call void @llvm.lifetime.start.p0(i64 8, ptr %14) #25
  store i64 0, ptr %14, align 8, !tbaa !16
  call void @llvm.lifetime.start.p0(i64 8, ptr %15) #25
  %29 = load i64, ptr %12, align 8, !tbaa !16
  store i64 %29, ptr %15, align 8, !tbaa !16
  call void @llvm.lifetime.start.p0(i64 8, ptr %16) #25
  store i64 1, ptr %16, align 8, !tbaa !16
  call void @llvm.lifetime.start.p0(i64 4, ptr %17) #25
  store i32 0, ptr %17, align 4, !tbaa !39
  call void @llvm.lifetime.start.p0(i64 8, ptr %18) #25
  %30 = load ptr, ptr %5, align 8
  %31 = load i32, ptr %30, align 4, !tbaa !39
  call void @__kmpc_for_static_init_8(ptr @1, i32 %31, i32 34, ptr %17, ptr %14, ptr %15, ptr %16, i64 1, i64 1)
  %32 = load i64, ptr %15, align 8, !tbaa !16
  %33 = load i64, ptr %12, align 8, !tbaa !16
  %34 = icmp sgt i64 %32, %33
  br i1 %34, label %35, label %37

35:                                               ; preds = %28
  %36 = load i64, ptr %12, align 8, !tbaa !16
  br label %39

37:                                               ; preds = %28
  %38 = load i64, ptr %15, align 8, !tbaa !16
  br label %39

39:                                               ; preds = %37, %35
  %40 = phi i64 [ %36, %35 ], [ %38, %37 ]
  store i64 %40, ptr %15, align 8, !tbaa !16
  %41 = load i64, ptr %14, align 8, !tbaa !16
  store i64 %41, ptr %10, align 8, !tbaa !16
  br label %42

42:                                               ; preds = %55, %39
  %43 = load i64, ptr %10, align 8, !tbaa !16
  %44 = load i64, ptr %15, align 8, !tbaa !16
  %45 = icmp sle i64 %43, %44
  br i1 %45, label %47, label %46

46:                                               ; preds = %42
  br label %58

47:                                               ; preds = %42
  %48 = load i64, ptr %10, align 8, !tbaa !16
  %49 = mul nsw i64 %48, 1
  %50 = add nsw i64 0, %49
  store i64 %50, ptr %18, align 8, !tbaa !16
  %51 = load ptr, ptr %9, align 8, !tbaa !9
  %52 = load i64, ptr %18, align 8, !tbaa !16
  invoke void @"_ZZZZN6open3d1t8geometry6kernel9transform15RotatePointsCPUERKNS_4core6TensorERS5_S7_ENK3$_0clEvENKUlvE0_clEvENKUllE_clEl"(ptr noundef nonnull align 8 dereferenceable(24) %51, i64 noundef %52)
          to label %53 unwind label %63

53:                                               ; preds = %47
  br label %54

54:                                               ; preds = %53
  br label %55

55:                                               ; preds = %54
  %56 = load i64, ptr %10, align 8, !tbaa !16
  %57 = add nsw i64 %56, 1
  store i64 %57, ptr %10, align 8, !tbaa !16
  br label %42

58:                                               ; preds = %46
  br label %59

59:                                               ; preds = %58
  %60 = load ptr, ptr %5, align 8
  %61 = load i32, ptr %60, align 4, !tbaa !39
  call void @__kmpc_for_static_fini(ptr @1, i32 %61)
  call void @llvm.lifetime.end.p0(i64 8, ptr %18) #25
  call void @llvm.lifetime.end.p0(i64 4, ptr %17) #25
  call void @llvm.lifetime.end.p0(i64 8, ptr %16) #25
  call void @llvm.lifetime.end.p0(i64 8, ptr %15) #25
  call void @llvm.lifetime.end.p0(i64 8, ptr %14) #25
  br label %62

62:                                               ; preds = %59, %4
  call void @llvm.lifetime.end.p0(i64 8, ptr %12) #25
  call void @llvm.lifetime.end.p0(i64 8, ptr %11) #25
  call void @llvm.lifetime.end.p0(i64 8, ptr %10) #25
  ret void

63:                                               ; preds = %47
  %64 = landingpad { ptr, i32 }
          catch ptr null
  %65 = extractvalue { ptr, i32 } %64, 0
  call void @__clang_call_terminate(ptr %65) #28
  unreachable
}