; Function Attrs: alwaysinline norecurse nounwind ssp uwtable
define internal void @"_ZN6open3d4core15ParallelForCPU_IZZZNS_1t8geometry6kernel9transform15RotatePointsCPUERKNS0_6TensorERS6_S8_ENK3$_0clEvENKUlvE0_clEvEUllE_EEvRKNS0_6DeviceElRKT_.omp_outlined"(ptr noalias noundef readonly captures(none) %0, ptr noalias readnone captures(none) %1, ptr noundef nonnull readonly align 8 captures(none) dereferenceable(8) %2, ptr noundef nonnull readonly align 8 captures(none) dereferenceable(24) %3) #23 personality ptr @__gxx_personality_v0 {
  %5 = alloca i64, align 8
  %6 = alloca i64, align 8
  %7 = alloca i64, align 8
  %8 = alloca i32, align 4
  %9 = load i64, ptr %2, align 8, !tbaa !9
  %10 = icmp sgt i64 %9, 0
  br i1 %10, label %11, label %69

11:                                               ; preds = %4
  %12 = add nsw i64 %9, -1
  call void @llvm.lifetime.start.p0(i64 8, ptr nonnull %5) #24
  store i64 0, ptr %5, align 8, !tbaa !9
  call void @llvm.lifetime.start.p0(i64 8, ptr nonnull %6) #24
  store i64 %12, ptr %6, align 8, !tbaa !9
  call void @llvm.lifetime.start.p0(i64 8, ptr nonnull %7) #24
  store i64 1, ptr %7, align 8, !tbaa !9
  call void @llvm.lifetime.start.p0(i64 4, ptr nonnull %8) #24
  store i32 0, ptr %8, align 4, !tbaa !146
  %13 = load i32, ptr %0, align 4, !tbaa !146
  call void @__kmpc_for_static_init_8(ptr nonnull @1, i32 %13, i32 34, ptr nonnull %8, ptr nonnull %5, ptr nonnull %6, ptr nonnull %7, i64 1, i64 1)
  %14 = load i64, ptr %6, align 8, !tbaa !9
  %15 = call i64 @llvm.smin.i64(i64 %14, i64 %12)
  store i64 %15, ptr %6, align 8, !tbaa !9
  %16 = load i64, ptr %5, align 8, !tbaa !9
  %.not13 = icmp sgt i64 %16, %15
  br i1 %.not13, label %._crit_edge, label %.lr.ph

.lr.ph:                                           ; preds = %11
  %17 = load ptr, ptr %3, align 8, !tbaa !651
  %18 = getelementptr inbounds nuw i8, ptr %3, i64 8
  %19 = load ptr, ptr %18, align 8, !tbaa !653
  %20 = getelementptr inbounds nuw i8, ptr %3, i64 16
  %21 = load ptr, ptr %20, align 8, !tbaa !654
  %22 = getelementptr inbounds nuw i8, ptr %21, i64 8
  %23 = getelementptr inbounds nuw i8, ptr %21, i64 16
  %24 = getelementptr inbounds nuw i8, ptr %17, i64 8
  %25 = getelementptr inbounds nuw i8, ptr %17, i64 16
  %26 = getelementptr inbounds nuw i8, ptr %17, i64 24
  %27 = getelementptr inbounds nuw i8, ptr %17, i64 32
  %28 = getelementptr inbounds nuw i8, ptr %17, i64 40
  %29 = getelementptr inbounds nuw i8, ptr %17, i64 48
  %30 = getelementptr inbounds nuw i8, ptr %17, i64 56
  %31 = getelementptr inbounds nuw i8, ptr %17, i64 64
  br label %32

32:                                               ; preds = %.lr.ph, %32
  %.014 = phi i64 [ %16, %.lr.ph ], [ %68, %32 ]
  %.idx.i = mul nsw i64 %.014, 24
  %33 = getelementptr inbounds i8, ptr %19, i64 %.idx.i
  %34 = load double, ptr %33, align 8, !tbaa !639
  %35 = load double, ptr %21, align 8, !tbaa !639
  %36 = fsub double %34, %35
  %37 = getelementptr inbounds nuw i8, ptr %33, i64 8
  %38 = load double, ptr %37, align 8, !tbaa !639
  %39 = load double, ptr %22, align 8, !tbaa !639
  %40 = fsub double %38, %39
  %41 = getelementptr inbounds nuw i8, ptr %33, i64 16
  %42 = load double, ptr %41, align 8, !tbaa !639
  %43 = load double, ptr %23, align 8, !tbaa !639
  %44 = fsub double %42, %43
  %45 = load double, ptr %17, align 8, !tbaa !639
  %46 = load double, ptr %24, align 8, !tbaa !639
  %47 = fmul double %40, %46
  %48 = call double @llvm.fmuladd.f64(double %45, double %36, double %47)
  %49 = load double, ptr %25, align 8, !tbaa !639
  %50 = call double @llvm.fmuladd.f64(double %49, double %44, double %48)
  %51 = fadd double %35, %50
  store double %51, ptr %33, align 8, !tbaa !639
  %52 = load double, ptr %26, align 8, !tbaa !639
  %53 = load double, ptr %27, align 8, !tbaa !639
  %54 = fmul double %40, %53
  %55 = call double @llvm.fmuladd.f64(double %52, double %36, double %54)
  %56 = load double, ptr %28, align 8, !tbaa !639
  %57 = call double @llvm.fmuladd.f64(double %56, double %44, double %55)
  %58 = load double, ptr %22, align 8, !tbaa !639
  %59 = fadd double %58, %57
  store double %59, ptr %37, align 8, !tbaa !639
  %60 = load double, ptr %29, align 8, !tbaa !639
  %61 = load double, ptr %30, align 8, !tbaa !639
  %62 = fmul double %40, %61
  %63 = call double @llvm.fmuladd.f64(double %60, double %36, double %62)
  %64 = load double, ptr %31, align 8, !tbaa !639
  %65 = call double @llvm.fmuladd.f64(double %64, double %44, double %63)
  %66 = load double, ptr %23, align 8, !tbaa !639
  %67 = fadd double %66, %65
  store double %67, ptr %41, align 8, !tbaa !639
  %68 = add i64 %.014, 1
  %exitcond.not = icmp eq i64 %.014, %15
  br i1 %exitcond.not, label %._crit_edge, label %32

._crit_edge:                                      ; preds = %32, %11
  call void @__kmpc_for_static_fini(ptr nonnull @1, i32 %13)
  call void @llvm.lifetime.end.p0(i64 4, ptr nonnull %8) #24
  call void @llvm.lifetime.end.p0(i64 8, ptr nonnull %7) #24
  call void @llvm.lifetime.end.p0(i64 8, ptr nonnull %6) #24
  call void @llvm.lifetime.end.p0(i64 8, ptr nonnull %5) #24
  br label %69

69:                                               ; preds = %._crit_edge, %4
  ret void
}